target datalayout = "e-m:e-p270:32:32-p271:32:32-p272:64:64-i64:64-i128:128-f80:128-n8:16:32:64-S128"
target triple = "x86_64-pc-linux-gnu"

%struct.FunctionCallInfoBaseData = type { ptr, ptr, ptr, i32, i8, i16, [0 x %struct.NullableDatum] }
%struct.NullableDatum = type { i64, i8 }
%struct.anon = type { i32, [0 x i8] }
%struct.varattrib_1b = type { i8, [0 x i8] }
%struct.varattrib_1b_e = type { i8, i8, [0 x i8] }

@lo_cleanup_needed = internal global i8 0, align 1
@CurrentMemoryContext = external global ptr, align 8
@.str.20 = private unnamed_addr constant [9 x i8] c"lo_put()\00", align 1

; Function Attrs: inlinehint nounwind uwtable
define internal ptr @DatumGetPointer(i64 noundef %0) #2 {
  %2 = alloca i64, align 8
  store i64 %0, ptr %2, align 8
  %3 = load i64, ptr %2, align 8
  %4 = inttoptr i64 %3 to ptr
  ret ptr %4
}

; Function Attrs: inlinehint nounwind uwtable
define internal i64 @DatumGetInt64(i64 noundef %0) #2 {
  %2 = alloca i64, align 8
  store i64 %0, ptr %2, align 8
  %3 = load i64, ptr %2, align 8
  ret i64 %3
}

; Function Attrs: inlinehint nounwind uwtable
define internal i32 @DatumGetObjectId(i64 noundef %0) #2 {
  %2 = alloca i64, align 8
  store i64 %0, ptr %2, align 8
  %3 = load i64, ptr %2, align 8
  %4 = trunc i64 %3 to i32
  ret i32 %4
}

; Function Attrs: nounwind uwtable
define dso_local i64 @be_lo_put(ptr noundef %0) #0 {
  %2 = alloca ptr, align 8
  %3 = alloca i32, align 4
  %4 = alloca i64, align 8
  %5 = alloca ptr, align 8
  %6 = alloca ptr, align 8
  %7 = alloca i32, align 4
  store ptr %0, ptr %2, align 8
  call void @llvm.lifetime.start.p0(i64 4, ptr %3) #8
  %8 = load ptr, ptr %2, align 8
  %9 = getelementptr inbounds nuw %struct.FunctionCallInfoBaseData, ptr %8, i32 0, i32 6
  %10 = getelementptr inbounds [0 x %struct.NullableDatum], ptr %9, i64 0, i64 0
  %11 = getelementptr inbounds nuw %struct.NullableDatum, ptr %10, i32 0, i32 0
  %12 = load i64, ptr %11, align 8
  %13 = call i32 @DatumGetObjectId(i64 noundef %12)
  store i32 %13, ptr %3, align 4
  call void @llvm.lifetime.start.p0(i64 8, ptr %4) #8
  %14 = load ptr, ptr %2, align 8
  %15 = getelementptr inbounds nuw %struct.FunctionCallInfoBaseData, ptr %14, i32 0, i32 6
  %16 = getelementptr inbounds [0 x %struct.NullableDatum], ptr %15, i64 0, i64 1
  %17 = getelementptr inbounds nuw %struct.NullableDatum, ptr %16, i32 0, i32 0
  %18 = load i64, ptr %17, align 8
  %19 = call i64 @DatumGetInt64(i64 noundef %18)
  store i64 %19, ptr %4, align 8
  call void @llvm.lifetime.start.p0(i64 8, ptr %5) #8
  %20 = load ptr, ptr %2, align 8
  %21 = getelementptr inbounds nuw %struct.FunctionCallInfoBaseData, ptr %20, i32 0, i32 6
  %22 = getelementptr inbounds [0 x %struct.NullableDatum], ptr %21, i64 0, i64 2
  %23 = getelementptr inbounds nuw %struct.NullableDatum, ptr %22, i32 0, i32 0
  %24 = load i64, ptr %23, align 8
  %25 = call ptr @DatumGetPointer(i64 noundef %24)
  %26 = call ptr @pg_detoast_datum_packed(ptr noundef %25)
  store ptr %26, ptr %5, align 8
  call void @llvm.lifetime.start.p0(i64 8, ptr %6) #8
  call void @llvm.lifetime.start.p0(i64 4, ptr %7) #8
  call void @PreventCommandIfReadOnly(ptr noundef @.str.20)
  store i8 1, ptr @lo_cleanup_needed, align 1
  %27 = load i32, ptr %3, align 4
  %28 = load ptr, ptr @CurrentMemoryContext, align 8
  %29 = call ptr @inv_open(i32 noundef %27, i32 noundef 131072, ptr noundef %28)
  store ptr %29, ptr %6, align 8
  %30 = load ptr, ptr %6, align 8
  %31 = load i64, ptr %4, align 8
  %32 = call i64 @inv_seek(ptr noundef %30, i64 noundef %31, i32 noundef 0)
  %33 = load ptr, ptr %6, align 8
  %34 = load ptr, ptr %5, align 8
  %35 = getelementptr inbounds nuw %struct.varattrib_1b, ptr %34, i32 0, i32 0
  %36 = load i8, ptr %35, align 1
  %37 = zext i8 %36 to i32
  %38 = and i32 %37, 1
  %39 = icmp eq i32 %38, 1
  br i1 %39, label %40, label %44

40:                                               ; preds = %1
  %41 = load ptr, ptr %5, align 8
  %42 = getelementptr inbounds nuw %struct.varattrib_1b, ptr %41, i32 0, i32 1
  %43 = getelementptr inbounds [0 x i8], ptr %42, i64 0, i64 0
  br label %48

44:                                               ; preds = %1
  %45 = load ptr, ptr %5, align 8
  %46 = getelementptr inbounds nuw %struct.anon, ptr %45, i32 0, i32 1
  %47 = getelementptr inbounds [0 x i8], ptr %46, i64 0, i64 0
  br label %48

48:                                               ; preds = %44, %40
  %49 = phi ptr [ %43, %40 ], [ %47, %44 ]
  %50 = load ptr, ptr %5, align 8
  %51 = getelementptr inbounds nuw %struct.varattrib_1b, ptr %50, i32 0, i32 0
  %52 = load i8, ptr %51, align 1
  %53 = zext i8 %52 to i32
  %54 = icmp eq i32 %53, 1
  br i1 %54, label %55, label %83

55:                                               ; preds = %48
  %56 = load ptr, ptr %5, align 8
  %57 = getelementptr inbounds nuw %struct.varattrib_1b_e, ptr %56, i32 0, i32 1
  %58 = load i8, ptr %57, align 1
  %59 = zext i8 %58 to i32
  %60 = icmp eq i32 %59, 1
  br i1 %60, label %61, label %62

61:                                               ; preds = %55
  br label %79

62:                                               ; preds = %55
  %63 = load ptr, ptr %5, align 8
  %64 = getelementptr inbounds nuw %struct.varattrib_1b_e, ptr %63, i32 0, i32 1
  %65 = load i8, ptr %64, align 1
  %66 = zext i8 %65 to i32
  %67 = and i32 %66, -2
  %68 = icmp eq i32 %67, 2
  br i1 %68, label %69, label %70

69:                                               ; preds = %62
  br label %77

70:                                               ; preds = %62
  %71 = load ptr, ptr %5, align 8
  %72 = getelementptr inbounds nuw %struct.varattrib_1b_e, ptr %71, i32 0, i32 1
  %73 = load i8, ptr %72, align 1
  %74 = zext i8 %73 to i32
  %75 = icmp eq i32 %74, 18
  %76 = select i1 %75, i64 16, i64 0
  br label %77

77:                                               ; preds = %70, %69
  %78 = phi i64 [ 8, %69 ], [ %76, %70 ]
  br label %79

79:                                               ; preds = %77, %61
  %80 = phi i64 [ 8, %61 ], [ %78, %77 ]
  %81 = add i64 2, %80
  %82 = sub i64 %81, 2
  br label %109

83:                                               ; preds = %48
  %84 = load ptr, ptr %5, align 8
  %85 = getelementptr inbounds nuw %struct.varattrib_1b, ptr %84, i32 0, i32 0
  %86 = load i8, ptr %85, align 1
  %87 = zext i8 %86 to i32
  %88 = and i32 %87, 1
  %89 = icmp eq i32 %88, 1
  br i1 %89, label %90, label %99

90:                                               ; preds = %83
  %91 = load ptr, ptr %5, align 8
  %92 = getelementptr inbounds nuw %struct.varattrib_1b, ptr %91, i32 0, i32 0
  %93 = load i8, ptr %92, align 1
  %94 = zext i8 %93 to i32
  %95 = ashr i32 %94, 1
  %96 = and i32 %95, 127
  %97 = sext i32 %96 to i64
  %98 = sub i64 %97, 1
  br label %107

99:                                               ; preds = %83
  %100 = load ptr, ptr %5, align 8
  %101 = getelementptr inbounds nuw %struct.anon, ptr %100, i32 0, i32 0
  %102 = load i32, ptr %101, align 4
  %103 = lshr i32 %102, 2
  %104 = and i32 %103, 1073741823
  %105 = sub i32 %104, 4
  %106 = zext i32 %105 to i64
  br label %107

107:                                              ; preds = %99, %90
  %108 = phi i64 [ %98, %90 ], [ %106, %99 ]
  br label %109

109:                                              ; preds = %107, %79
  %110 = phi i64 [ %82, %79 ], [ %108, %107 ]
  %111 = trunc i64 %110 to i32
  %112 = call i32 @inv_write(ptr noundef %33, ptr noundef %49, i32 noundef %111)
  store i32 %112, ptr %7, align 4
  %113 = load ptr, ptr %6, align 8
  call void @inv_close(ptr noundef %113)
  call void @llvm.lifetime.end.p0(i64 4, ptr %7) #8
  call void @llvm.lifetime.end.p0(i64 8, ptr %6) #8
  call void @llvm.lifetime.end.p0(i64 8, ptr %5) #8
  call void @llvm.lifetime.end.p0(i64 8, ptr %4) #8
  call void @llvm.lifetime.end.p0(i64 4, ptr %3) #8
  ret i64 0
}