; Function Attrs: nounwind uwtable
define dso_local noundef i64 @be_lo_put(ptr noundef readonly captures(none) %0) local_unnamed_addr #0 {
  %2 = getelementptr inbounds nuw i8, ptr %0, i64 32
  %3 = load i64, ptr %2, align 8
  %4 = trunc i64 %3 to i32
  %5 = getelementptr inbounds nuw i8, ptr %0, i64 48
  %6 = load i64, ptr %5, align 8
  %7 = getelementptr inbounds nuw i8, ptr %0, i64 64
  %8 = load i64, ptr %7, align 8
  %9 = inttoptr i64 %8 to ptr
  %10 = tail call ptr @pg_detoast_datum_packed(ptr noundef %9) #10
  tail call void @PreventCommandIfReadOnly(ptr noundef nonnull @.str.20) #10
  store i1 true, ptr @lo_cleanup_needed, align 1
  %11 = load ptr, ptr @CurrentMemoryContext, align 8
  %12 = tail call ptr @inv_open(i32 noundef %4, i32 noundef 131072, ptr noundef %11) #10
  %13 = tail call i64 @inv_seek(ptr noundef %12, i64 noundef %6, i32 noundef 0) #10
  %14 = load i8, ptr %10, align 1
  %15 = zext i8 %14 to i32
  %16 = and i32 %15, 1
  %.not = icmp eq i32 %16, 0
  %17 = getelementptr inbounds nuw i8, ptr %10, i64 1
  %18 = icmp eq i8 %14, 1
  br i1 %18, label %19, label %27

19:                                               ; preds = %1
  %20 = load i8, ptr %17, align 1
  %21 = icmp eq i8 %20, 1
  %22 = and i8 %20, -2
  %23 = icmp eq i8 %22, 2
  %or.cond = or i1 %21, %23
  %24 = icmp eq i8 %20, 18
  %25 = select i1 %24, i32 16, i32 0
  %26 = select i1 %or.cond, i32 8, i32 %25
  br label %35

27:                                               ; preds = %1
  br i1 %.not, label %31, label %28

28:                                               ; preds = %27
  %29 = lshr i32 %15, 1
  %30 = add nsw i32 %29, -1
  br label %35

31:                                               ; preds = %27
  %32 = load i32, ptr %10, align 4
  %33 = lshr i32 %32, 2
  %34 = add nsw i32 %33, -4
  br label %35

35:                                               ; preds = %28, %31, %19
  %36 = phi i32 [ %26, %19 ], [ %30, %28 ], [ %34, %31 ]
  %37 = getelementptr inbounds nuw i8, ptr %10, i64 4
  %38 = select i1 %.not, ptr %37, ptr %17
  %39 = tail call i32 @inv_write(ptr noundef %12, ptr noundef nonnull %38, i32 noundef %36) #10
  tail call void @inv_close(ptr noundef %12) #10
  ret i64 0
}